; Function Attrs: mustprogress uwtable
define void @_ZNK6casadi6MatrixINS_6SXElemEE3depEx(ptr dead_on_unwind noalias writable sret(%"class.casadi::Matrix") align 8 %0, ptr noundef nonnull align 8 dereferenceable(40) %1, i64 noundef %2) local_unnamed_addr #3 align 2 personality ptr @__gxx_personality_v0 {
  %4 = alloca %"class.casadi::SXElem", align 8
  %5 = alloca %"class.casadi::SXElem", align 8
  call void @_ZNK6casadi6MatrixINS_6SXElemEE6scalarEv(ptr dead_on_unwind nonnull writable sret(%"class.casadi::SXElem") align 8 %5, ptr noundef nonnull align 8 dereferenceable(40) %1)
  invoke void @_ZNK6casadi6SXElem3depEx(ptr dead_on_unwind nonnull writable sret(%"class.casadi::SXElem") align 8 %4, ptr noundef nonnull align 8 dereferenceable(8) %5, i64 noundef %2)
          to label %6 unwind label %8

6:                                                ; preds = %3
  invoke void @_ZNK6casadi6SXElemcvNS_6MatrixIS0_EEEv(ptr dead_on_unwind writable sret(%"class.casadi::Matrix") align 8 %0, ptr noundef nonnull align 8 dereferenceable(8) %4)
          to label %7 unwind label %10

7:                                                ; preds = %6
  call void @_ZN6casadi6SXElemD1Ev(ptr noundef nonnull align 8 dereferenceable(8) %4) #26
  call void @_ZN6casadi6SXElemD1Ev(ptr noundef nonnull align 8 dereferenceable(8) %5) #26
  ret void

8:                                                ; preds = %3
  %9 = landingpad { ptr, i32 }
          cleanup
  br label %12

10:                                               ; preds = %6
  %11 = landingpad { ptr, i32 }
          cleanup
  call void @_ZN6casadi6SXElemD1Ev(ptr noundef nonnull align 8 dereferenceable(8) %4) #26
  br label %12

12:                                               ; preds = %10, %8
  %.pn = phi { ptr, i32 } [ %11, %10 ], [ %9, %8 ]
  call void @_ZN6casadi6SXElemD1Ev(ptr noundef nonnull align 8 dereferenceable(8) %5) #26
  resume { ptr, i32 } %.pn
}